target datalayout = "e-m:e-p270:32:32-p271:32:32-p272:64:64-i64:64-i128:128-f80:128-n8:16:32:64-S128"
target triple = "x86_64-pc-linux-gnu"

%struct.evthread_lock_callbacks = type { i32, i32, ptr, ptr, ptr, ptr }
%struct.ev_token_bucket = type { i64, i64, i32 }
%struct.ev_token_bucket_cfg = type { i64, i64, i64, i64, %struct.timeval, i32 }
%struct.timeval = type { i64, i64 }
%struct.bufferevent_private = type { %struct.bufferevent, ptr, i8, i16, i16, i16, i32, i32, %struct.event_callback, i32, i32, ptr, i64, i64, ptr, %union.anon.7, ptr }
%struct.bufferevent = type { ptr, ptr, %struct.event, %struct.event, ptr, ptr, %struct.event_watermark, %struct.event_watermark, ptr, ptr, ptr, ptr, %struct.timeval, %struct.timeval, i16 }
%struct.event = type { %struct.event_callback, %union.anon.0, i32, i16, i16, ptr, %union.anon.2, %struct.timeval }
%union.anon.0 = type { %struct.anon.1 }
%struct.anon.1 = type { ptr, ptr }
%union.anon.2 = type { %struct.anon.3 }
%struct.anon.3 = type { %struct.anon.4, %struct.timeval }
%struct.anon.4 = type { ptr, ptr }
%struct.event_watermark = type { i64, i64 }
%struct.event_callback = type { %struct.anon, i16, i8, i8, %union.anon, ptr }
%struct.anon = type { ptr, ptr }
%union.anon = type { ptr }
%union.anon.7 = type { %struct.sockaddr_in6 }
%struct.sockaddr_in6 = type { i16, i16, i32, %struct.in6_addr, i32 }
%struct.in6_addr = type { %union.anon.8 }
%union.anon.8 = type { [4 x i32] }
%struct.bufferevent_rate_limit = type { %struct.anon.9, ptr, %struct.ev_token_bucket, ptr, %struct.event }
%struct.anon.9 = type { ptr, ptr }
%struct.bufferevent_rate_limit_group = type { %struct.rlim_group_member_list, %struct.ev_token_bucket, %struct.ev_token_bucket_cfg, i8, i64, i64, i32, i64, i64, %struct.event, %struct.evutil_weakrand_state, ptr }
%struct.rlim_group_member_list = type { ptr }
%struct.evutil_weakrand_state = type { i32 }

@evthread_lock_fns_ = external global %struct.evthread_lock_callbacks, align 8

; Function Attrs: nounwind uwtable
define i32 @bufferevent_remove_from_rate_limit_group(ptr noundef %0) #0 {
  %2 = alloca ptr, align 8
  store ptr %0, ptr %2, align 8
  %3 = load ptr, ptr %2, align 8
  %4 = call i32 @bufferevent_remove_from_rate_limit_group_internal_(ptr noundef %3, i32 noundef 1)
  ret i32 %4
}

; Function Attrs: nounwind uwtable
define i32 @bufferevent_add_to_rate_limit_group(ptr noundef %0, ptr noundef %1) #0 {
  %3 = alloca i32, align 4
  %4 = alloca ptr, align 8
  %5 = alloca ptr, align 8
  %6 = alloca i32, align 4
  %7 = alloca i32, align 4
  %8 = alloca ptr, align 8
  %9 = alloca ptr, align 8
  %10 = alloca ptr, align 8
  %11 = alloca ptr, align 8
  %12 = alloca i32, align 4
  %13 = alloca ptr, align 8
  %14 = alloca ptr, align 8
  store ptr %0, ptr %4, align 8
  store ptr %1, ptr %5, align 8
  call void @llvm.lifetime.start.p0(i64 4, ptr %6) #5
  call void @llvm.lifetime.start.p0(i64 4, ptr %7) #5
  call void @llvm.lifetime.start.p0(i64 8, ptr %8) #5
  %15 = load ptr, ptr %4, align 8
  %16 = getelementptr inbounds i8, ptr %15, i64 0
  store ptr %16, ptr %8, align 8
  br label %17

17:                                               ; preds = %2
  call void @llvm.lifetime.start.p0(i64 8, ptr %9) #5
  %18 = load ptr, ptr %4, align 8
  %19 = getelementptr inbounds i8, ptr %18, i64 0
  store ptr %19, ptr %9, align 8
  br label %20

20:                                               ; preds = %17
  %21 = load ptr, ptr %9, align 8
  %22 = getelementptr inbounds nuw %struct.bufferevent_private, ptr %21, i32 0, i32 11
  %23 = load ptr, ptr %22, align 8
  %24 = icmp ne ptr %23, null
  br i1 %24, label %25, label %31

25:                                               ; preds = %20
  %26 = load ptr, ptr getelementptr inbounds nuw (%struct.evthread_lock_callbacks, ptr @evthread_lock_fns_, i32 0, i32 4), align 8
  %27 = load ptr, ptr %9, align 8
  %28 = getelementptr inbounds nuw %struct.bufferevent_private, ptr %27, i32 0, i32 11
  %29 = load ptr, ptr %28, align 8
  %30 = call i32 %26(i32 noundef 0, ptr noundef %29)
  br label %31

31:                                               ; preds = %25, %20
  br label %32

32:                                               ; preds = %31
  br label %33

33:                                               ; preds = %32
  call void @llvm.lifetime.end.p0(i64 8, ptr %9) #5
  br label %34

34:                                               ; preds = %33
  br label %35

35:                                               ; preds = %34
  %36 = load ptr, ptr %8, align 8
  %37 = getelementptr inbounds nuw %struct.bufferevent_private, ptr %36, i32 0, i32 14
  %38 = load ptr, ptr %37, align 8
  %39 = icmp ne ptr %38, null
  br i1 %39, label %78, label %40

40:                                               ; preds = %35
  call void @llvm.lifetime.start.p0(i64 8, ptr %10) #5
  %41 = call ptr @event_mm_calloc_(i64 noundef 1, i64 noundef 176)
  store ptr %41, ptr %10, align 8
  %42 = load ptr, ptr %10, align 8
  %43 = icmp ne ptr %42, null
  br i1 %43, label %64, label %44

44:                                               ; preds = %40
  br label %45

45:                                               ; preds = %44
  call void @llvm.lifetime.start.p0(i64 8, ptr %11) #5
  %46 = load ptr, ptr %4, align 8
  %47 = getelementptr inbounds i8, ptr %46, i64 0
  store ptr %47, ptr %11, align 8
  br label %48

48:                                               ; preds = %45
  %49 = load ptr, ptr %11, align 8
  %50 = getelementptr inbounds nuw %struct.bufferevent_private, ptr %49, i32 0, i32 11
  %51 = load ptr, ptr %50, align 8
  %52 = icmp ne ptr %51, null
  br i1 %52, label %53, label %59

53:                                               ; preds = %48
  %54 = load ptr, ptr getelementptr inbounds nuw (%struct.evthread_lock_callbacks, ptr @evthread_lock_fns_, i32 0, i32 5), align 8
  %55 = load ptr, ptr %11, align 8
  %56 = getelementptr inbounds nuw %struct.bufferevent_private, ptr %55, i32 0, i32 11
  %57 = load ptr, ptr %56, align 8
  %58 = call i32 %54(i32 noundef 0, ptr noundef %57)
  br label %59

59:                                               ; preds = %53, %48
  br label %60

60:                                               ; preds = %59
  br label %61

61:                                               ; preds = %60
  call void @llvm.lifetime.end.p0(i64 8, ptr %11) #5
  br label %62

62:                                               ; preds = %61
  br label %63

63:                                               ; preds = %62
  store i32 -1, ptr %3, align 4
  store i32 1, ptr %12, align 4
  br label %75

64:                                               ; preds = %40
  %65 = load ptr, ptr %10, align 8
  %66 = getelementptr inbounds nuw %struct.bufferevent_rate_limit, ptr %65, i32 0, i32 4
  %67 = load ptr, ptr %4, align 8
  %68 = getelementptr inbounds nuw %struct.bufferevent, ptr %67, i32 0, i32 0
  %69 = load ptr, ptr %68, align 8
  %70 = load ptr, ptr %8, align 8
  %71 = call i32 @event_assign(ptr noundef %66, ptr noundef %69, i32 noundef -1, i16 noundef signext 64, ptr noundef @bev_refill_callback_, ptr noundef %70)
  %72 = load ptr, ptr %10, align 8
  %73 = load ptr, ptr %8, align 8
  %74 = getelementptr inbounds nuw %struct.bufferevent_private, ptr %73, i32 0, i32 14
  store ptr %72, ptr %74, align 8
  store i32 0, ptr %12, align 4
  br label %75

75:                                               ; preds = %64, %63
  call void @llvm.lifetime.end.p0(i64 8, ptr %10) #5
  %76 = load i32, ptr %12, align 4
  switch i32 %76, label %234 [
    i32 0, label %77
  ]

77:                                               ; preds = %75
  br label %78

78:                                               ; preds = %77, %35
  %79 = load ptr, ptr %8, align 8
  %80 = getelementptr inbounds nuw %struct.bufferevent_private, ptr %79, i32 0, i32 14
  %81 = load ptr, ptr %80, align 8
  %82 = getelementptr inbounds nuw %struct.bufferevent_rate_limit, ptr %81, i32 0, i32 1
  %83 = load ptr, ptr %82, align 8
  %84 = load ptr, ptr %5, align 8
  %85 = icmp eq ptr %83, %84
  br i1 %85, label %86, label %106

86:                                               ; preds = %78
  br label %87

87:                                               ; preds = %86
  call void @llvm.lifetime.start.p0(i64 8, ptr %13) #5
  %88 = load ptr, ptr %4, align 8
  %89 = getelementptr inbounds i8, ptr %88, i64 0
  store ptr %89, ptr %13, align 8
  br label %90

90:                                               ; preds = %87
  %91 = load ptr, ptr %13, align 8
  %92 = getelementptr inbounds nuw %struct.bufferevent_private, ptr %91, i32 0, i32 11
  %93 = load ptr, ptr %92, align 8
  %94 = icmp ne ptr %93, null
  br i1 %94, label %95, label %101

95:                                               ; preds = %90
  %96 = load ptr, ptr getelementptr inbounds nuw (%struct.evthread_lock_callbacks, ptr @evthread_lock_fns_, i32 0, i32 5), align 8
  %97 = load ptr, ptr %13, align 8
  %98 = getelementptr inbounds nuw %struct.bufferevent_private, ptr %97, i32 0, i32 11
  %99 = load ptr, ptr %98, align 8
  %100 = call i32 %96(i32 noundef 0, ptr noundef %99)
  br label %101

101:                                              ; preds = %95, %90
  br label %102

102:                                              ; preds = %101
  br label %103

103:                                              ; preds = %102
  call void @llvm.lifetime.end.p0(i64 8, ptr %13) #5
  br label %104

104:                                              ; preds = %103
  br label %105

105:                                              ; preds = %104
  store i32 0, ptr %3, align 4
  store i32 1, ptr %12, align 4
  br label %234

106:                                              ; preds = %78
  %107 = load ptr, ptr %8, align 8
  %108 = getelementptr inbounds nuw %struct.bufferevent_private, ptr %107, i32 0, i32 14
  %109 = load ptr, ptr %108, align 8
  %110 = getelementptr inbounds nuw %struct.bufferevent_rate_limit, ptr %109, i32 0, i32 1
  %111 = load ptr, ptr %110, align 8
  %112 = icmp ne ptr %111, null
  br i1 %112, label %113, label %116

113:                                              ; preds = %106
  %114 = load ptr, ptr %4, align 8
  %115 = call i32 @bufferevent_remove_from_rate_limit_group(ptr noundef %114)
  br label %116

116:                                              ; preds = %113, %106
  br label %117

117:                                              ; preds = %116
  %118 = load ptr, ptr %5, align 8
  %119 = getelementptr inbounds nuw %struct.bufferevent_rate_limit_group, ptr %118, i32 0, i32 11
  %120 = load ptr, ptr %119, align 8
  %121 = icmp ne ptr %120, null
  br i1 %121, label %122, label %128

122:                                              ; preds = %117
  %123 = load ptr, ptr getelementptr inbounds nuw (%struct.evthread_lock_callbacks, ptr @evthread_lock_fns_, i32 0, i32 4), align 8
  %124 = load ptr, ptr %5, align 8
  %125 = getelementptr inbounds nuw %struct.bufferevent_rate_limit_group, ptr %124, i32 0, i32 11
  %126 = load ptr, ptr %125, align 8
  %127 = call i32 %123(i32 noundef 0, ptr noundef %126)
  br label %128

128:                                              ; preds = %122, %117
  br label %129

129:                                              ; preds = %128
  br label %130

130:                                              ; preds = %129
  %131 = load ptr, ptr %5, align 8
  %132 = load ptr, ptr %8, align 8
  %133 = getelementptr inbounds nuw %struct.bufferevent_private, ptr %132, i32 0, i32 14
  %134 = load ptr, ptr %133, align 8
  %135 = getelementptr inbounds nuw %struct.bufferevent_rate_limit, ptr %134, i32 0, i32 1
  store ptr %131, ptr %135, align 8
  %136 = load ptr, ptr %5, align 8
  %137 = getelementptr inbounds nuw %struct.bufferevent_rate_limit_group, ptr %136, i32 0, i32 6
  %138 = load i32, ptr %137, align 8
  %139 = add nsw i32 %138, 1
  store i32 %139, ptr %137, align 8
  br label %140

140:                                              ; preds = %130
  %141 = load ptr, ptr %5, align 8
  %142 = getelementptr inbounds nuw %struct.bufferevent_rate_limit_group, ptr %141, i32 0, i32 0
  %143 = getelementptr inbounds nuw %struct.rlim_group_member_list, ptr %142, i32 0, i32 0
  %144 = load ptr, ptr %143, align 8
  %145 = load ptr, ptr %8, align 8
  %146 = getelementptr inbounds nuw %struct.bufferevent_private, ptr %145, i32 0, i32 14
  %147 = load ptr, ptr %146, align 8
  %148 = getelementptr inbounds nuw %struct.bufferevent_rate_limit, ptr %147, i32 0, i32 0
  %149 = getelementptr inbounds nuw %struct.anon.9, ptr %148, i32 0, i32 0
  store ptr %144, ptr %149, align 8
  %150 = icmp ne ptr %144, null
  br i1 %150, label %151, label %165

151:                                              ; preds = %140
  %152 = load ptr, ptr %8, align 8
  %153 = getelementptr inbounds nuw %struct.bufferevent_private, ptr %152, i32 0, i32 14
  %154 = load ptr, ptr %153, align 8
  %155 = getelementptr inbounds nuw %struct.bufferevent_rate_limit, ptr %154, i32 0, i32 0
  %156 = getelementptr inbounds nuw %struct.anon.9, ptr %155, i32 0, i32 0
  %157 = load ptr, ptr %5, align 8
  %158 = getelementptr inbounds nuw %struct.bufferevent_rate_limit_group, ptr %157, i32 0, i32 0
  %159 = getelementptr inbounds nuw %struct.rlim_group_member_list, ptr %158, i32 0, i32 0
  %160 = load ptr, ptr %159, align 8
  %161 = getelementptr inbounds nuw %struct.bufferevent_private, ptr %160, i32 0, i32 14
  %162 = load ptr, ptr %161, align 8
  %163 = getelementptr inbounds nuw %struct.bufferevent_rate_limit, ptr %162, i32 0, i32 0
  %164 = getelementptr inbounds nuw %struct.anon.9, ptr %163, i32 0, i32 1
  store ptr %156, ptr %164, align 8
  br label %165

165:                                              ; preds = %151, %140
  %166 = load ptr, ptr %8, align 8
  %167 = load ptr, ptr %5, align 8
  %168 = getelementptr inbounds nuw %struct.bufferevent_rate_limit_group, ptr %167, i32 0, i32 0
  %169 = getelementptr inbounds nuw %struct.rlim_group_member_list, ptr %168, i32 0, i32 0
  store ptr %166, ptr %169, align 8
  %170 = load ptr, ptr %5, align 8
  %171 = getelementptr inbounds nuw %struct.bufferevent_rate_limit_group, ptr %170, i32 0, i32 0
  %172 = getelementptr inbounds nuw %struct.rlim_group_member_list, ptr %171, i32 0, i32 0
  %173 = load ptr, ptr %8, align 8
  %174 = getelementptr inbounds nuw %struct.bufferevent_private, ptr %173, i32 0, i32 14
  %175 = load ptr, ptr %174, align 8
  %176 = getelementptr inbounds nuw %struct.bufferevent_rate_limit, ptr %175, i32 0, i32 0
  %177 = getelementptr inbounds nuw %struct.anon.9, ptr %176, i32 0, i32 1
  store ptr %172, ptr %177, align 8
  br label %178

178:                                              ; preds = %165
  br label %179

179:                                              ; preds = %178
  %180 = load ptr, ptr %5, align 8
  %181 = getelementptr inbounds nuw %struct.bufferevent_rate_limit_group, ptr %180, i32 0, i32 3
  %182 = load i8, ptr %181, align 8
  %183 = and i8 %182, 1
  %184 = zext i8 %183 to i32
  store i32 %184, ptr %7, align 4
  %185 = load ptr, ptr %5, align 8
  %186 = getelementptr inbounds nuw %struct.bufferevent_rate_limit_group, ptr %185, i32 0, i32 3
  %187 = load i8, ptr %186, align 8
  %188 = lshr i8 %187, 1
  %189 = and i8 %188, 1
  %190 = zext i8 %189 to i32
  store i32 %190, ptr %6, align 4
  br label %191

191:                                              ; preds = %179
  %192 = load ptr, ptr %5, align 8
  %193 = getelementptr inbounds nuw %struct.bufferevent_rate_limit_group, ptr %192, i32 0, i32 11
  %194 = load ptr, ptr %193, align 8
  %195 = icmp ne ptr %194, null
  br i1 %195, label %196, label %202

196:                                              ; preds = %191
  %197 = load ptr, ptr getelementptr inbounds nuw (%struct.evthread_lock_callbacks, ptr @evthread_lock_fns_, i32 0, i32 5), align 8
  %198 = load ptr, ptr %5, align 8
  %199 = getelementptr inbounds nuw %struct.bufferevent_rate_limit_group, ptr %198, i32 0, i32 11
  %200 = load ptr, ptr %199, align 8
  %201 = call i32 %197(i32 noundef 0, ptr noundef %200)
  br label %202

202:                                              ; preds = %196, %191
  br label %203

203:                                              ; preds = %202
  br label %204

204:                                              ; preds = %203
  %205 = load i32, ptr %7, align 4
  %206 = icmp ne i32 %205, 0
  br i1 %206, label %207, label %209

207:                                              ; preds = %204
  %208 = load ptr, ptr %4, align 8
  call void @bufferevent_suspend_read_(ptr noundef %208, i16 noundef zeroext 4)
  br label %209

209:                                              ; preds = %207, %204
  %210 = load i32, ptr %6, align 4
  %211 = icmp ne i32 %210, 0
  br i1 %211, label %212, label %214

212:                                              ; preds = %209
  %213 = load ptr, ptr %4, align 8
  call void @bufferevent_suspend_write_(ptr noundef %213, i16 noundef zeroext 4)
  br label %214

214:                                              ; preds = %212, %209
  br label %215

215:                                              ; preds = %214
  call void @llvm.lifetime.start.p0(i64 8, ptr %14) #5
  %216 = load ptr, ptr %4, align 8
  %217 = getelementptr inbounds i8, ptr %216, i64 0
  store ptr %217, ptr %14, align 8
  br label %218

218:                                              ; preds = %215
  %219 = load ptr, ptr %14, align 8
  %220 = getelementptr inbounds nuw %struct.bufferevent_private, ptr %219, i32 0, i32 11
  %221 = load ptr, ptr %220, align 8
  %222 = icmp ne ptr %221, null
  br i1 %222, label %223, label %229

223:                                              ; preds = %218
  %224 = load ptr, ptr getelementptr inbounds nuw (%struct.evthread_lock_callbacks, ptr @evthread_lock_fns_, i32 0, i32 5), align 8
  %225 = load ptr, ptr %14, align 8
  %226 = getelementptr inbounds nuw %struct.bufferevent_private, ptr %225, i32 0, i32 11
  %227 = load ptr, ptr %226, align 8
  %228 = call i32 %224(i32 noundef 0, ptr noundef %227)
  br label %229

229:                                              ; preds = %223, %218
  br label %230

230:                                              ; preds = %229
  br label %231

231:                                              ; preds = %230
  call void @llvm.lifetime.end.p0(i64 8, ptr %14) #5
  br label %232

232:                                              ; preds = %231
  br label %233

233:                                              ; preds = %232
  store i32 0, ptr %3, align 4
  store i32 1, ptr %12, align 4
  br label %234

234:                                              ; preds = %233, %105, %75
  call void @llvm.lifetime.end.p0(i64 8, ptr %8) #5
  call void @llvm.lifetime.end.p0(i64 4, ptr %7) #5
  call void @llvm.lifetime.end.p0(i64 4, ptr %6) #5
  %235 = load i32, ptr %3, align 4
  ret i32 %235
}