; Function Attrs: nounwind uwtable
define range(i32 -1, 1) i32 @bufferevent_add_to_rate_limit_group(ptr noundef %0, ptr noundef %1) local_unnamed_addr #3 {
  %3 = getelementptr inbounds nuw i8, ptr %0, i64 448
  %4 = load ptr, ptr %3, align 8
  %.not = icmp eq ptr %4, null
  br i1 %.not, label %8, label %5

5:                                                ; preds = %2
  %6 = load ptr, ptr getelementptr inbounds nuw (i8, ptr @evthread_lock_fns_, i64 24), align 8
  %7 = tail call i32 %6(i32 noundef 0, ptr noundef nonnull %4) #10
  br label %8

8:                                                ; preds = %5, %2
  %9 = getelementptr inbounds nuw i8, ptr %0, i64 472
  %10 = load ptr, ptr %9, align 8
  %.not55 = icmp eq ptr %10, null
  br i1 %.not55, label %11, label %19

11:                                               ; preds = %8
  %12 = tail call ptr @event_mm_calloc_(i64 noundef 1, i64 noundef 176) #10
  %.not56.not = icmp eq ptr %12, null
  br i1 %.not56.not, label %13, label %15

13:                                               ; preds = %11
  %14 = load ptr, ptr %3, align 8
  %.not57 = icmp eq ptr %14, null
  br i1 %.not57, label %.thread, label %.thread.sink.split

15:                                               ; preds = %11
  %16 = getelementptr inbounds nuw i8, ptr %12, i64 56
  %17 = load ptr, ptr %0, align 8
  %18 = tail call i32 @event_assign(ptr noundef nonnull %16, ptr noundef %17, i32 noundef -1, i16 noundef signext 64, ptr noundef nonnull @bev_refill_callback_, ptr noundef nonnull %0) #10
  store ptr %12, ptr %9, align 8
  br label %19

19:                                               ; preds = %15, %8
  %20 = phi ptr [ %12, %15 ], [ %10, %8 ]
  %21 = getelementptr inbounds nuw i8, ptr %20, i64 16
  %22 = load ptr, ptr %21, align 8
  %23 = icmp eq ptr %22, %1
  br i1 %23, label %24, label %26

24:                                               ; preds = %19
  %25 = load ptr, ptr %3, align 8
  %.not65 = icmp eq ptr %25, null
  br i1 %.not65, label %.thread, label %.thread.sink.split

26:                                               ; preds = %19
  %.not58 = icmp eq ptr %22, null
  br i1 %.not58, label %29, label %27

27:                                               ; preds = %26
  %28 = tail call i32 @bufferevent_remove_from_rate_limit_group_internal_(ptr noundef nonnull %0, i32 noundef 1)
  br label %29

29:                                               ; preds = %26, %27
  %30 = getelementptr inbounds nuw i8, ptr %1, i64 264
  %31 = load ptr, ptr %30, align 8
  %.not59 = icmp eq ptr %31, null
  br i1 %.not59, label %35, label %32

32:                                               ; preds = %29
  %33 = load ptr, ptr getelementptr inbounds nuw (i8, ptr @evthread_lock_fns_, i64 24), align 8
  %34 = tail call i32 %33(i32 noundef 0, ptr noundef nonnull %31) #10
  br label %35

35:                                               ; preds = %32, %29
  %36 = load ptr, ptr %9, align 8
  %37 = getelementptr inbounds nuw i8, ptr %36, i64 16
  store ptr %1, ptr %37, align 8
  %38 = getelementptr inbounds nuw i8, ptr %1, i64 112
  %39 = load i32, ptr %38, align 8
  %40 = add nsw i32 %39, 1
  store i32 %40, ptr %38, align 8
  %41 = load ptr, ptr %1, align 8
  %42 = load ptr, ptr %9, align 8
  store ptr %41, ptr %42, align 8
  %.not60 = icmp eq ptr %41, null
  br i1 %.not60, label %48, label %43

43:                                               ; preds = %35
  %44 = load ptr, ptr %9, align 8
  %45 = getelementptr inbounds nuw i8, ptr %41, i64 472
  %46 = load ptr, ptr %45, align 8
  %47 = getelementptr inbounds nuw i8, ptr %46, i64 8
  store ptr %44, ptr %47, align 8
  br label %48

48:                                               ; preds = %43, %35
  store ptr %0, ptr %1, align 8
  %49 = load ptr, ptr %9, align 8
  %50 = getelementptr inbounds nuw i8, ptr %49, i64 8
  store ptr %1, ptr %50, align 8
  %51 = getelementptr inbounds nuw i8, ptr %1, i64 88
  %52 = load i8, ptr %51, align 8
  %53 = and i8 %52, 1
  %54 = load ptr, ptr %30, align 8
  %.not61 = icmp eq ptr %54, null
  br i1 %.not61, label %58, label %55

55:                                               ; preds = %48
  %56 = load ptr, ptr getelementptr inbounds nuw (i8, ptr @evthread_lock_fns_, i64 32), align 8
  %57 = tail call i32 %56(i32 noundef 0, ptr noundef nonnull %54) #10
  br label %58

58:                                               ; preds = %55, %48
  %.not62 = icmp eq i8 %53, 0
  br i1 %.not62, label %60, label %59

59:                                               ; preds = %58
  tail call void @bufferevent_suspend_read_(ptr noundef nonnull %0, i16 noundef zeroext 4) #10
  br label %60

60:                                               ; preds = %59, %58
  %61 = and i8 %52, 2
  %.not63 = icmp eq i8 %61, 0
  br i1 %.not63, label %63, label %62

62:                                               ; preds = %60
  tail call void @bufferevent_suspend_write_(ptr noundef nonnull %0, i16 noundef zeroext 4) #10
  br label %63

63:                                               ; preds = %60, %62
  %64 = load ptr, ptr %3, align 8
  %.not64 = icmp eq ptr %64, null
  br i1 %.not64, label %.thread, label %.thread.sink.split

.thread.sink.split:                               ; preds = %63, %24, %13
  %.sink = phi ptr [ %14, %13 ], [ %25, %24 ], [ %64, %63 ]
  %.1.ph = phi i32 [ -1, %13 ], [ 0, %24 ], [ 0, %63 ]
  %65 = load ptr, ptr getelementptr inbounds nuw (i8, ptr @evthread_lock_fns_, i64 32), align 8
  %66 = tail call i32 %65(i32 noundef 0, ptr noundef nonnull %.sink) #10
  br label %.thread

.thread:                                          ; preds = %.thread.sink.split, %13, %63, %24
  %.1 = phi i32 [ 0, %24 ], [ 0, %63 ], [ -1, %13 ], [ %.1.ph, %.thread.sink.split ]
  ret i32 %.1
}